target datalayout = "e-m:e-p270:32:32-p271:32:32-p272:64:64-i64:64-i128:128-f80:128-n8:16:32:64-S128"
target triple = "x86_64-pc-linux-gnu"

%"struct.open_spiel::IIGObservationType" = type { i8, i8, i32 }

; Function Attrs: mustprogress nounwind uwtable
define noundef zeroext i1 @_ZN10open_spiel18IIGObservationTypeeqERKS0_(ptr noundef nonnull align 4 dereferenceable(8) %0, ptr noundef nonnull align 4 dereferenceable(8) %1) #6 align 2 {
  %3 = alloca ptr, align 8
  %4 = alloca ptr, align 8
  store ptr %0, ptr %3, align 8
  store ptr %1, ptr %4, align 8
  %5 = load ptr, ptr %3, align 8
  %6 = getelementptr inbounds nuw %"struct.open_spiel::IIGObservationType", ptr %5, i32 0, i32 0
  %7 = load i8, ptr %6, align 4
  %8 = trunc i8 %7 to i1
  %9 = zext i1 %8 to i32
  %10 = load ptr, ptr %4, align 8
  %11 = getelementptr inbounds nuw %"struct.open_spiel::IIGObservationType", ptr %10, i32 0, i32 0
  %12 = load i8, ptr %11, align 4
  %13 = trunc i8 %12 to i1
  %14 = zext i1 %13 to i32
  %15 = icmp eq i32 %9, %14
  br i1 %15, label %16, label %34

16:                                               ; preds = %2
  %17 = getelementptr inbounds nuw %"struct.open_spiel::IIGObservationType", ptr %5, i32 0, i32 1
  %18 = load i8, ptr %17, align 1
  %19 = trunc i8 %18 to i1
  %20 = zext i1 %19 to i32
  %21 = load ptr, ptr %4, align 8
  %22 = getelementptr inbounds nuw %"struct.open_spiel::IIGObservationType", ptr %21, i32 0, i32 1
  %23 = load i8, ptr %22, align 1
  %24 = trunc i8 %23 to i1
  %25 = zext i1 %24 to i32
  %26 = icmp eq i32 %20, %25
  br i1 %26, label %27, label %34

27:                                               ; preds = %16
  %28 = getelementptr inbounds nuw %"struct.open_spiel::IIGObservationType", ptr %5, i32 0, i32 2
  %29 = load i32, ptr %28, align 4
  %30 = load ptr, ptr %4, align 8
  %31 = getelementptr inbounds nuw %"struct.open_spiel::IIGObservationType", ptr %30, i32 0, i32 2
  %32 = load i32, ptr %31, align 4
  %33 = icmp eq i32 %29, %32
  br label %34

34:                                               ; preds = %27, %16, %2
  %35 = phi i1 [ false, %16 ], [ false, %2 ], [ %33, %27 ]
  ret i1 %35
}