; Function Attrs: mustprogress nofree norecurse nosync nounwind willreturn memory(argmem: read) uwtable
define noundef zeroext i1 @_ZN10open_spiel18IIGObservationTypeeqERKS0_(ptr noundef nonnull readonly align 4 captures(none) dereferenceable(8) %0, ptr noundef nonnull readonly align 4 captures(none) dereferenceable(8) %1) local_unnamed_addr #7 align 2 {
  %3 = load i8, ptr %0, align 4
  %4 = load i8, ptr %1, align 4
  %5 = xor i8 %4, %3
  %6 = and i8 %5, 1
  %7 = icmp eq i8 %6, 0
  br i1 %7, label %8, label %22

8:                                                ; preds = %2
  %9 = getelementptr inbounds nuw i8, ptr %0, i64 1
  %10 = load i8, ptr %9, align 1
  %11 = getelementptr inbounds nuw i8, ptr %1, i64 1
  %12 = load i8, ptr %11, align 1
  %13 = xor i8 %12, %10
  %14 = and i8 %13, 1
  %15 = icmp eq i8 %14, 0
  br i1 %15, label %16, label %22

16:                                               ; preds = %8
  %17 = getelementptr inbounds nuw i8, ptr %0, i64 4
  %18 = load i32, ptr %17, align 4
  %19 = getelementptr inbounds nuw i8, ptr %1, i64 4
  %20 = load i32, ptr %19, align 4
  %21 = icmp eq i32 %18, %20
  br label %22

22:                                               ; preds = %16, %8, %2
  %23 = phi i1 [ false, %8 ], [ false, %2 ], [ %21, %16 ]
  ret i1 %23
}